target datalayout = "e-m:e-p270:32:32-p271:32:32-p272:64:64-i64:64-i128:128-f80:128-n8:16:32:64-S128"
target triple = "x86_64-unknown-linux-gnu"

; Function Attrs: mustprogress noreturn uwtable
define internal void @_ZN12_GLOBAL__N_110ParseErrorERKNSt7__cxx1112basic_stringIcSt11char_traitsIcESaIcEEEPKN6Assimp3FBX5TokenE(ptr noundef nonnull align 8 dereferenceable(32) %message, ptr noundef %token) #7 {
entry:
  %message.addr = alloca ptr, align 8
  %token.addr = alloca ptr, align 8
  store ptr %message, ptr %message.addr, align 8
  store ptr %token, ptr %token.addr, align 8
  %0 = load ptr, ptr %token.addr, align 8
  %tobool = icmp ne ptr %0, null
  br i1 %tobool, label %if.then, label %if.end

if.then:                                          ; preds = %entry
  %1 = load ptr, ptr %message.addr, align 8
  %2 = load ptr, ptr %token.addr, align 8
  call void @_ZN12_GLOBAL__N_110ParseErrorERKNSt7__cxx1112basic_stringIcSt11char_traitsIcESaIcEEERKN6Assimp3FBX5TokenE(ptr noundef nonnull align 8 dereferenceable(32) %1, ptr noundef nonnull align 8 dereferenceable(36) %2) #16
  unreachable

if.end:                                           ; preds = %entry
  %3 = load ptr, ptr %message.addr, align 8
  call void @_ZN12_GLOBAL__N_110ParseErrorERKNSt7__cxx1112basic_stringIcSt11char_traitsIcESaIcEEEPKN6Assimp3FBX7ElementE(ptr noundef nonnull align 8 dereferenceable(32) %3, ptr noundef null) #16
  unreachable
}