; Function Attrs: mustprogress noreturn uwtable
define internal fastcc void @_ZN12_GLOBAL__N_110ParseErrorERKNSt7__cxx1112basic_stringIcSt11char_traitsIcESaIcEEEPKN6Assimp3FBX5TokenE(ptr noundef nonnull align 8 dereferenceable(32) %message, ptr noundef %token) unnamed_addr #5 {
entry:
  %tobool.not = icmp eq ptr %token, null
  br i1 %tobool.not, label %if.end, label %if.then

if.then:                                          ; preds = %entry
  tail call fastcc void @_ZN12_GLOBAL__N_110ParseErrorERKNSt7__cxx1112basic_stringIcSt11char_traitsIcESaIcEEERKN6Assimp3FBX5TokenE(ptr noundef nonnull align 8 dereferenceable(32) %message, ptr noundef nonnull align 8 dereferenceable(36) %token) #22
  unreachable

if.end:                                           ; preds = %entry
  tail call fastcc void @_ZN12_GLOBAL__N_110ParseErrorERKNSt7__cxx1112basic_stringIcSt11char_traitsIcESaIcEEEPKN6Assimp3FBX7ElementE(ptr noundef nonnull align 8 dereferenceable(32) %message, ptr noundef null) #22
  unreachable
}